GAS LISTING /tmp/cc5phlil.s 			page 1


   1              		.file	"main.cpp"
   2              		.option nopic
   3              		.option norelax
   4              		.attribute arch, "rv64i2p0_m2p0_a2p0"
   5              		.attribute unaligned_access, 0
   6              		.attribute stack_align, 16
   7              		.text
   8              	.Ltext0:
   9              		.file 0 "/home/sybilvane/Desktop/programiranje/41f_OS_projekat" "src/main.cpp"
  10              		.align	2
  11              		.globl	_Z8userMainv
  13              	_Z8userMainv:
  14              	.LFB10:
  15              		.file 1 "src/main.cpp"
   1:src/main.cpp  **** //
   2:src/main.cpp  **** // Created by sybilvane on 5/27/24.
   3:src/main.cpp  **** //
   4:src/main.cpp  **** 
   5:src/main.cpp  **** #include "../h/MemoryAllocator.hpp"
   6:src/main.cpp  **** #include "../h/LinkedList.hpp"
   7:src/main.cpp  **** #include "../h/riscv.hpp"
   8:src/main.cpp  **** 
   9:src/main.cpp  **** void userMain(){
  16              		.loc 1 9 16
  17              		.cfi_startproc
  18 0000 130101FF 		addi	sp,sp,-16
  19              		.cfi_def_cfa_offset 16
  20 0004 23348100 		sd	s0,8(sp)
  21              		.cfi_offset 8, -8
  22 0008 13040101 		addi	s0,sp,16
  23              		.cfi_def_cfa 8, 0
  10:src/main.cpp  **** 
  11:src/main.cpp  **** }
  24              		.loc 1 11 1 is_stmt 0
  25 000c 03348100 		ld	s0,8(sp)
  26              		.cfi_restore 8
  27              		.cfi_def_cfa 2, 16
  28 0010 13010101 		addi	sp,sp,16
  29              		.cfi_def_cfa_offset 0
  30 0014 67800000 		jr	ra
  31              		.cfi_endproc
  32              	.LFE10:
  34              		.align	2
  35              		.globl	main
  37              	main:
  38              	.LFB11:
  12:src/main.cpp  **** 
  13:src/main.cpp  **** void main(){
  39              		.loc 1 13 12 is_stmt 1
  40              		.cfi_startproc
  41 0018 130101FF 		addi	sp,sp,-16
  42              		.cfi_def_cfa_offset 16
  43 001c 23341100 		sd	ra,8(sp)
  44 0020 23308100 		sd	s0,0(sp)
  45              		.cfi_offset 1, -8
  46              		.cfi_offset 8, -16
  47 0024 13040101 		addi	s0,sp,16
GAS LISTING /tmp/cc5phlil.s 			page 2


  48              		.cfi_def_cfa 8, 0
  14:src/main.cpp  ****     userMain();
  49              		.loc 1 14 5
  15:src/main.cpp  ****     riscv::close_riscv_emulation();
  50              		.loc 1 15 5
  51              		.loc 1 15 33 is_stmt 0
  52 0028 97000000 		call	_ZN5riscv21close_riscv_emulationEv
  52      E7800000 
  53              	.LVL0:
  16:src/main.cpp  **** }...
  54              		.loc 1 16 1
  55 0030 83308100 		ld	ra,8(sp)
  56              		.cfi_restore 1
  57 0034 03340100 		ld	s0,0(sp)
  58              		.cfi_restore 8
  59              		.cfi_def_cfa 2, 16
  60 0038 13010101 		addi	sp,sp,16
  61              		.cfi_def_cfa_offset 0
  62 003c 67800000 		jr	ra
  63              		.cfi_endproc
  64              	.LFE11:
  66              	.Letext0:
  67              		.file 2 "src/../h/../lib/hw.h"
  68              		.file 3 "src/../h/riscv.hpp"
GAS LISTING /tmp/cc5phlil.s 			page 3

